(lp0
Vhttp://drw.saw-leipzig.de/30446.html
p1
aVhttp://drw.saw-leipzig.de/30447.html
p2
aVhttp://drw.saw-leipzig.de/30444.html
p3
aVhttp://drw.saw-leipzig.de/30445.html
p4
aVhttp://drw.saw-leipzig.de/30442.html
p5
aVhttp://drw.saw-leipzig.de/30443.html
p6
aVhttp://drw.saw-leipzig.de/30440.html
p7
aVhttp://drw.saw-leipzig.de/30441.html
p8
aVhttp://drw.saw-leipzig.de/30844.html
p9
aVhttp://drw.saw-leipzig.de/30413.html
p10
aVhttp://drw.saw-leipzig.de/30419.html
p11
aVhttp://drw.saw-leipzig.de/30418.html
p12
aVhttp://drw.saw-leipzig.de/30412.html
p13
aVhttp://drw.saw-leipzig.de/30258.html
p14
aVhttp://drw.saw-leipzig.de/20087.html
p15
aVhttp://drw.saw-leipzig.de/30249.html
p16
aVhttp://drw.saw-leipzig.de/30241.html
p17
aVhttp://drw.saw-leipzig.de/30225.html
p18
aVhttp://drw.saw-leipzig.de/30047.html
p19
aVhttp://drw.saw-leipzig.de/30439.html
p20
aVhttp://drw.saw-leipzig.de/30438.html
p21
aVhttp://drw.saw-leipzig.de/30437.html
p22
aVhttp://drw.saw-leipzig.de/30436.html
p23
aVhttp://drw.saw-leipzig.de/30435.html
p24
aVhttp://drw.saw-leipzig.de/30434.html
p25
aVhttp://drw.saw-leipzig.de/30433.html
p26
aVhttp://drw.saw-leipzig.de/30432.html
p27
aVhttp://drw.saw-leipzig.de/30431.html
p28
aVhttp://drw.saw-leipzig.de/30430.html
p29
aVhttp://drw.saw-leipzig.de/30294.html
p30
aVhttp://drw.saw-leipzig.de/31219.html
p31
aVhttp://drw.saw-leipzig.de/30428.html
p32
aVhttp://drw.saw-leipzig.de/30429.html
p33
aVhttp://drw.saw-leipzig.de/30420.html
p34
aVhttp://drw.saw-leipzig.de/30421.html
p35
aVhttp://drw.saw-leipzig.de/30422.html
p36
aVhttp://drw.saw-leipzig.de/30423.html
p37
aVhttp://drw.saw-leipzig.de/30424.html
p38
aVhttp://drw.saw-leipzig.de/30425.html
p39
aVhttp://drw.saw-leipzig.de/30426.html
p40
aVhttp://drw.saw-leipzig.de/30427.html
p41
aVhttp://drw.saw-leipzig.de/10203.html
p42
aVhttp://drw.saw-leipzig.de/30415.html
p43
aVhttp://drw.saw-leipzig.de/30414.html
p44
aVhttp://drw.saw-leipzig.de/30417.html
p45
aVhttp://drw.saw-leipzig.de/30416.html
p46
aVhttp://drw.saw-leipzig.de/30779.html
p47
aVhttp://drw.saw-leipzig.de/30285.html
p48
aVhttp://drw.saw-leipzig.de/30282.html
p49
aVhttp://drw.saw-leipzig.de/30358.html
p50
aVhttp://drw.saw-leipzig.de/30250.html
p51
aVhttp://drw.saw-leipzig.de/30164.html
p52
aVhttp://drw.saw-leipzig.de/10233.html
p53
aVhttp://drw.saw-leipzig.de/30017.html
p54
aVhttp://drw.saw-leipzig.de/31014.html
p55
aVhttp://drw.saw-leipzig.de/30018.html
p56
aVhttp://drw.saw-leipzig.de/31010.html
p57
aVhttp://drw.saw-leipzig.de/30385.html
p58
aVhttp://drw.saw-leipzig.de/30380.html
p59
aVhttp://drw.saw-leipzig.de/30179.html
p60
aVhttp://drw.saw-leipzig.de/30175.html
p61
aVhttp://drw.saw-leipzig.de/30173.html
p62
aVhttp://drw.saw-leipzig.de/30570.html
p63
aVhttp://drw.saw-leipzig.de/30377.html
p64
aVhttp://drw.saw-leipzig.de/30002.html
p65
aVhttp://drw.saw-leipzig.de/31154.html
p66
aVhttp://drw.saw-leipzig.de/30030.html
p67
aVhttp://drw.saw-leipzig.de/30004.html
p68
aVhttp://drw.saw-leipzig.de/30926.html
p69
aVhttp://drw.saw-leipzig.de/30153.html
p70
aVhttp://drw.saw-leipzig.de/30158.html
p71
aVhttp://drw.saw-leipzig.de/30455.html
p72
aVhttp://drw.saw-leipzig.de/30454.html
p73
aVhttp://drw.saw-leipzig.de/30457.html
p74
aVhttp://drw.saw-leipzig.de/30456.html
p75
aVhttp://drw.saw-leipzig.de/30451.html
p76
aVhttp://drw.saw-leipzig.de/30450.html
p77
aVhttp://drw.saw-leipzig.de/30453.html
p78
aVhttp://drw.saw-leipzig.de/30452.html
p79
aVhttp://drw.saw-leipzig.de/10014.html
p80
aVhttp://drw.saw-leipzig.de/30235.html
p81
aVhttp://drw.saw-leipzig.de/30123.html
p82
aVhttp://drw.saw-leipzig.de/30054.html
p83
aVhttp://drw.saw-leipzig.de/30838.html
p84
aVhttp://drw.saw-leipzig.de/30836.html
p85
aVhttp://drw.saw-leipzig.de/30352.html
p86
aVhttp://drw.saw-leipzig.de/10001.html
p87
aVhttp://drw.saw-leipzig.de/30076.html
p88
aVhttp://drw.saw-leipzig.de/30229.html
p89
aVhttp://drw.saw-leipzig.de/30133.html
p90
aVhttp://drw.saw-leipzig.de/30136.html
p91
aVhttp://drw.saw-leipzig.de/30137.html
p92
aVhttp://drw.saw-leipzig.de/30135.html
p93
aVhttp://drw.saw-leipzig.de/30227.html
p94
aVhttp://drw.saw-leipzig.de/30219.html
p95
aVhttp://drw.saw-leipzig.de/30695.html
p96
aVhttp://drw.saw-leipzig.de/30692.html
p97
aVhttp://drw.saw-leipzig.de/30459.html
p98
aVhttp://drw.saw-leipzig.de/30458.html
p99
aVhttp://drw.saw-leipzig.de/30109.html
p100
aVhttp://drw.saw-leipzig.de/30100.html
p101
aVhttp://drw.saw-leipzig.de/30071.html
p102
aVhttp://drw.saw-leipzig.de/30070.html
p103
aVhttp://drw.saw-leipzig.de/30237.html
p104
aVhttp://drw.saw-leipzig.de/30119.html
p105
aVhttp://drw.saw-leipzig.de/30448.html
p106
aVhttp://drw.saw-leipzig.de/30449.html
p107
aVhttp://drw.saw-leipzig.de/30110.html
p108
aVhttp://drw.saw-leipzig.de/30204.html
p109
aVhttp://drw.saw-leipzig.de/30060.html
p110
aVhttp://drw.saw-leipzig.de/10052.html
p111
aVhttp://drw.saw-leipzig.de/30473.html
p112
aVhttp://drw.saw-leipzig.de/30472.html
p113
aVhttp://drw.saw-leipzig.de/30471.html
p114
aVhttp://drw.saw-leipzig.de/30470.html
p115
aVhttp://drw.saw-leipzig.de/30474.html
p116
aVhttp://drw.saw-leipzig.de/30464.html
p117
aVhttp://drw.saw-leipzig.de/30465.html
p118
aVhttp://drw.saw-leipzig.de/30466.html
p119
aVhttp://drw.saw-leipzig.de/30467.html
p120
aVhttp://drw.saw-leipzig.de/30460.html
p121
aVhttp://drw.saw-leipzig.de/30461.html
p122
aVhttp://drw.saw-leipzig.de/30462.html
p123
aVhttp://drw.saw-leipzig.de/30463.html
p124
aVhttp://drw.saw-leipzig.de/30468.html
p125
aVhttp://drw.saw-leipzig.de/30469.html
p126
aVhttp://drw.saw-leipzig.de/30796.html
p127
aVhttp://drw.saw-leipzig.de/30262.html
p128
aVhttp://drw.saw-leipzig.de/30264.html
p129
aVhttp://drw.saw-leipzig.de/30086.html
p130
aVhttp://drw.saw-leipzig.de/30087.html
p131
a.